; Function Attrs: mustprogress nounwind uwtable
define hidden noundef zeroext i1 @_ZNK19OpenColorIO_v2_4dev18RangeTransformImpl6equalsERKNS_14RangeTransformE(ptr noundef nonnull align 8 dereferenceable(248) %this, ptr noundef nonnull align 8 dereferenceable(8) %other) unnamed_addr #7 align 2 personality ptr @__gxx_personality_v0 {
entry:
  %cmp = icmp eq ptr %this, %other
  br i1 %cmp, label %return, label %if.end

if.end:                                           ; preds = %entry
  %m_data.i = getelementptr inbounds i8, ptr %this, i64 16
  %0 = tail call ptr @__dynamic_cast(ptr nonnull %other, ptr nonnull @_ZTIN19OpenColorIO_v2_4dev14RangeTransformE, ptr nonnull @_ZTIN19OpenColorIO_v2_4dev18RangeTransformImplE, i64 0) #18
  %m_data.i3 = getelementptr inbounds i8, ptr %0, i64 16
  %call3 = invoke noundef zeroext i1 @_ZN19OpenColorIO_v2_4deveqERKNS_11RangeOpDataES2_(ptr noundef nonnull align 8 dereferenceable(228) %m_data.i, ptr noundef nonnull align 8 dereferenceable(228) %m_data.i3)
          to label %invoke.cont unwind label %terminate.lpad

invoke.cont:                                      ; preds = %if.end
  br i1 %call3, label %land.rhs, label %return

land.rhs:                                         ; preds = %invoke.cont
  %m_style = getelementptr inbounds i8, ptr %this, i64 8
  %1 = load i32, ptr %m_style, align 8
  %vtable = load ptr, ptr %other, align 8
  %vfn = getelementptr inbounds i8, ptr %vtable, i64 56
  %2 = load ptr, ptr %vfn, align 8
  %call4 = tail call noundef i32 %2(ptr noundef nonnull align 8 dereferenceable(8) %other) #18
  %cmp5 = icmp eq i32 %1, %call4
  br label %return

return:                                           ; preds = %invoke.cont, %land.rhs, %entry
  %retval.0 = phi i1 [ true, %entry ], [ false, %invoke.cont ], [ %cmp5, %land.rhs ]
  ret i1 %retval.0

terminate.lpad:                                   ; preds = %if.end
  %3 = landingpad { ptr, i32 }
          catch ptr null
  %4 = extractvalue { ptr, i32 } %3, 0
  tail call void @__clang_call_terminate(ptr %4) #20
  unreachable
}